; Function Attrs: nounwind uwtable
define noundef i32 @H5O_loc_copy_deep(ptr nocapture noundef %0, ptr nocapture noundef readonly %1) local_unnamed_addr #1 {
  tail call void @llvm.memcpy.p0.p0.i64(ptr noundef nonnull align 8 dereferenceable(24) %0, ptr noundef nonnull align 8 dereferenceable(24) %1, i64 24, i1 false)
  %3 = getelementptr inbounds i8, ptr %1, i64 16
  %4 = load i8, ptr %3, align 8
  %5 = trunc i8 %4 to i1
  br i1 %5, label %6, label %9

6:                                                ; preds = %2
  %7 = load ptr, ptr %0, align 8
  %8 = tail call i32 @H5F_incr_nopen_objs(ptr noundef %7) #11
  br label %9

9:                                                ; preds = %6, %2
  ret i32 0
}